target datalayout = "e-m:e-p270:32:32-p271:32:32-p272:64:64-i64:64-i128:128-f80:128-n8:16:32:64-S128"
target triple = "x86_64-unknown-linux-gnu"

%"class.rocksdb::lru_cache::LRUHandleTable" = type { i32, %"class.std::unique_ptr", i32, i32, ptr }
%"class.std::unique_ptr" = type { %"struct.std::__uniq_ptr_data" }
%"struct.std::__uniq_ptr_data" = type { %"class.std::__uniq_ptr_impl" }
%"class.std::__uniq_ptr_impl" = type { %"class.std::tuple" }
%"class.std::tuple" = type { %"struct.std::_Tuple_impl" }
%"struct.std::_Tuple_impl" = type { %"struct.std::_Head_base.1" }
%"struct.std::_Head_base.1" = type { ptr }
%"struct.rocksdb::lru_cache::LRUHandle" = type { ptr, ptr, ptr, ptr, ptr, i64, i64, i32, i32, i8, i8, [1 x i8] }
%"class.rocksdb::lru_cache::LRUCacheShard" = type { %"class.rocksdb::CacheShardBase", i64, i64, i64, i8, double, double, double, double, %"struct.rocksdb::lru_cache::LRUHandle", ptr, ptr, %"class.rocksdb::lru_cache::LRUHandleTable", i64, i64, %"class.rocksdb::port::Mutex", ptr }
%"class.rocksdb::CacheShardBase" = type { i32 }
%"class.rocksdb::port::Mutex" = type { %union.pthread_mutex_t }
%union.pthread_mutex_t = type { %struct.__pthread_mutex_s }
%struct.__pthread_mutex_s = type { i32, i32, i32, i32, i32, i16, i16, %struct.__pthread_internal_list }
%struct.__pthread_internal_list = type { ptr, ptr }

@_ZN7rocksdb9lru_cache14LRUHandleTableC1EiPNS_15MemoryAllocatorE = unnamed_addr alias void (ptr, i32, ptr), ptr @_ZN7rocksdb9lru_cache14LRUHandleTableC2EiPNS_15MemoryAllocatorE
@_ZN7rocksdb9lru_cache14LRUHandleTableD1Ev = unnamed_addr alias void (ptr), ptr @_ZN7rocksdb9lru_cache14LRUHandleTableD2Ev

; Function Attrs: mustprogress nounwind uwtable
define linkonce_odr void @_ZN7rocksdb14CacheShardBaseC2ENS_25CacheMetadataChargePolicyE(ptr noundef nonnull align 4 dereferenceable(4) %this, i32 noundef %metadata_charge_policy) unnamed_addr #4 comdat align 2 {
entry:
  %this.addr = alloca ptr, align 8
  %metadata_charge_policy.addr = alloca i32, align 4
  store ptr %this, ptr %this.addr, align 8
  store i32 %metadata_charge_policy, ptr %metadata_charge_policy.addr, align 4
  %this1 = load ptr, ptr %this.addr, align 8
  %metadata_charge_policy_ = getelementptr inbounds %"class.rocksdb::CacheShardBase", ptr %this1, i32 0, i32 0
  %0 = load i32, ptr %metadata_charge_policy.addr, align 4
  store i32 %0, ptr %metadata_charge_policy_, align 4
  ret void
}

; Function Attrs: mustprogress uwtable
define void @_ZN7rocksdb9lru_cache13LRUCacheShardC2EmbddbNS_25CacheMetadataChargePolicyEiPNS_15MemoryAllocatorEPKSt8functionIFbRKNS_5SliceEPNS_5Cache6HandleEbEE(ptr noundef nonnull align 64 dereferenceable(256) %this, i64 noundef %capacity, i1 noundef zeroext %strict_capacity_limit, double noundef %high_pri_pool_ratio, double noundef %low_pri_pool_ratio, i1 noundef zeroext %use_adaptive_mutex, i32 noundef %metadata_charge_policy, i32 noundef %max_upper_hash_bits, ptr noundef %allocator, ptr noundef %eviction_callback) unnamed_addr #0 align 2 personality ptr @__gxx_personality_v0 {
entry:
  %this.addr = alloca ptr, align 8
  %capacity.addr = alloca i64, align 8
  %strict_capacity_limit.addr = alloca i8, align 1
  %high_pri_pool_ratio.addr = alloca double, align 8
  %low_pri_pool_ratio.addr = alloca double, align 8
  %use_adaptive_mutex.addr = alloca i8, align 1
  %metadata_charge_policy.addr = alloca i32, align 4
  %max_upper_hash_bits.addr = alloca i32, align 4
  %allocator.addr = alloca ptr, align 8
  %eviction_callback.addr = alloca ptr, align 8
  %exn.slot = alloca ptr, align 8
  %ehselector.slot = alloca i32, align 4
  store ptr %this, ptr %this.addr, align 8
  store i64 %capacity, ptr %capacity.addr, align 8
  %frombool = zext i1 %strict_capacity_limit to i8
  store i8 %frombool, ptr %strict_capacity_limit.addr, align 1
  store double %high_pri_pool_ratio, ptr %high_pri_pool_ratio.addr, align 8
  store double %low_pri_pool_ratio, ptr %low_pri_pool_ratio.addr, align 8
  %frombool1 = zext i1 %use_adaptive_mutex to i8
  store i8 %frombool1, ptr %use_adaptive_mutex.addr, align 1
  store i32 %metadata_charge_policy, ptr %metadata_charge_policy.addr, align 4
  store i32 %max_upper_hash_bits, ptr %max_upper_hash_bits.addr, align 4
  store ptr %allocator, ptr %allocator.addr, align 8
  store ptr %eviction_callback, ptr %eviction_callback.addr, align 8
  %this2 = load ptr, ptr %this.addr, align 8
  %0 = load i32, ptr %metadata_charge_policy.addr, align 4
  call void @_ZN7rocksdb14CacheShardBaseC2ENS_25CacheMetadataChargePolicyE(ptr noundef nonnull align 4 dereferenceable(4) %this2, i32 noundef %0)
  %capacity_ = getelementptr inbounds %"class.rocksdb::lru_cache::LRUCacheShard", ptr %this2, i32 0, i32 1
  store i64 0, ptr %capacity_, align 8
  %high_pri_pool_usage_ = getelementptr inbounds %"class.rocksdb::lru_cache::LRUCacheShard", ptr %this2, i32 0, i32 2
  store i64 0, ptr %high_pri_pool_usage_, align 16
  %low_pri_pool_usage_ = getelementptr inbounds %"class.rocksdb::lru_cache::LRUCacheShard", ptr %this2, i32 0, i32 3
  store i64 0, ptr %low_pri_pool_usage_, align 8
  %strict_capacity_limit_ = getelementptr inbounds %"class.rocksdb::lru_cache::LRUCacheShard", ptr %this2, i32 0, i32 4
  %1 = load i8, ptr %strict_capacity_limit.addr, align 1
  %tobool = trunc i8 %1 to i1
  %frombool3 = zext i1 %tobool to i8
  store i8 %frombool3, ptr %strict_capacity_limit_, align 32
  %high_pri_pool_ratio_ = getelementptr inbounds %"class.rocksdb::lru_cache::LRUCacheShard", ptr %this2, i32 0, i32 5
  %2 = load double, ptr %high_pri_pool_ratio.addr, align 8
  store double %2, ptr %high_pri_pool_ratio_, align 8
  %high_pri_pool_capacity_ = getelementptr inbounds %"class.rocksdb::lru_cache::LRUCacheShard", ptr %this2, i32 0, i32 6
  store double 0.000000e+00, ptr %high_pri_pool_capacity_, align 16
  %low_pri_pool_ratio_ = getelementptr inbounds %"class.rocksdb::lru_cache::LRUCacheShard", ptr %this2, i32 0, i32 7
  %3 = load double, ptr %low_pri_pool_ratio.addr, align 8
  store double %3, ptr %low_pri_pool_ratio_, align 8
  %low_pri_pool_capacity_ = getelementptr inbounds %"class.rocksdb::lru_cache::LRUCacheShard", ptr %this2, i32 0, i32 8
  store double 0.000000e+00, ptr %low_pri_pool_capacity_, align 64
  %table_ = getelementptr inbounds %"class.rocksdb::lru_cache::LRUCacheShard", ptr %this2, i32 0, i32 12
  %4 = load i32, ptr %max_upper_hash_bits.addr, align 4
  %5 = load ptr, ptr %allocator.addr, align 8
  call void @_ZN7rocksdb9lru_cache14LRUHandleTableC1EiPNS_15MemoryAllocatorE(ptr noundef nonnull align 8 dereferenceable(32) %table_, i32 noundef %4, ptr noundef %5)
  %usage_ = getelementptr inbounds %"class.rocksdb::lru_cache::LRUCacheShard", ptr %this2, i32 0, i32 13
  store i64 0, ptr %usage_, align 64
  %lru_usage_ = getelementptr inbounds %"class.rocksdb::lru_cache::LRUCacheShard", ptr %this2, i32 0, i32 14
  store i64 0, ptr %lru_usage_, align 8
  %mutex_ = getelementptr inbounds %"class.rocksdb::lru_cache::LRUCacheShard", ptr %this2, i32 0, i32 15
  %6 = load i8, ptr %use_adaptive_mutex.addr, align 1
  %tobool4 = trunc i8 %6 to i1
  invoke void @_ZN7rocksdb4port5MutexC1Eb(ptr noundef nonnull align 8 dereferenceable(40) %mutex_, i1 noundef zeroext %tobool4)
          to label %invoke.cont unwind label %lpad

invoke.cont:                                      ; preds = %entry
  %eviction_callback_ = getelementptr inbounds %"class.rocksdb::lru_cache::LRUCacheShard", ptr %this2, i32 0, i32 16
  %7 = load ptr, ptr %eviction_callback.addr, align 8
  store ptr %7, ptr %eviction_callback_, align 8
  %lru_5 = getelementptr inbounds %"class.rocksdb::lru_cache::LRUCacheShard", ptr %this2, i32 0, i32 9
  %lru_6 = getelementptr inbounds %"class.rocksdb::lru_cache::LRUCacheShard", ptr %this2, i32 0, i32 9
  %next = getelementptr inbounds %"struct.rocksdb::lru_cache::LRUHandle", ptr %lru_6, i32 0, i32 3
  store ptr %lru_5, ptr %next, align 8
  %lru_7 = getelementptr inbounds %"class.rocksdb::lru_cache::LRUCacheShard", ptr %this2, i32 0, i32 9
  %lru_8 = getelementptr inbounds %"class.rocksdb::lru_cache::LRUCacheShard", ptr %this2, i32 0, i32 9
  %prev = getelementptr inbounds %"struct.rocksdb::lru_cache::LRUHandle", ptr %lru_8, i32 0, i32 4
  store ptr %lru_7, ptr %prev, align 8
  %lru_9 = getelementptr inbounds %"class.rocksdb::lru_cache::LRUCacheShard", ptr %this2, i32 0, i32 9
  %lru_low_pri_ = getelementptr inbounds %"class.rocksdb::lru_cache::LRUCacheShard", ptr %this2, i32 0, i32 10
  store ptr %lru_9, ptr %lru_low_pri_, align 16
  %lru_10 = getelementptr inbounds %"class.rocksdb::lru_cache::LRUCacheShard", ptr %this2, i32 0, i32 9
  %lru_bottom_pri_ = getelementptr inbounds %"class.rocksdb::lru_cache::LRUCacheShard", ptr %this2, i32 0, i32 11
  store ptr %lru_10, ptr %lru_bottom_pri_, align 8
  %8 = load i64, ptr %capacity.addr, align 8
  invoke void @_ZN7rocksdb9lru_cache13LRUCacheShard11SetCapacityEm(ptr noundef nonnull align 64 dereferenceable(256) %this2, i64 noundef %8)
          to label %invoke.cont12 unwind label %lpad11

invoke.cont12:                                    ; preds = %invoke.cont
  ret void

lpad:                                             ; preds = %entry
  %9 = landingpad { ptr, i32 }
          cleanup
  %10 = extractvalue { ptr, i32 } %9, 0
  store ptr %10, ptr %exn.slot, align 8
  %11 = extractvalue { ptr, i32 } %9, 1
  store i32 %11, ptr %ehselector.slot, align 4
  br label %ehcleanup

lpad11:                                           ; preds = %invoke.cont
  %12 = landingpad { ptr, i32 }
          cleanup
  %13 = extractvalue { ptr, i32 } %12, 0
  store ptr %13, ptr %exn.slot, align 8
  %14 = extractvalue { ptr, i32 } %12, 1
  store i32 %14, ptr %ehselector.slot, align 4
  call void @_ZN7rocksdb4port5MutexD1Ev(ptr noundef nonnull align 8 dereferenceable(40) %mutex_) #15
  br label %ehcleanup

ehcleanup:                                        ; preds = %lpad11, %lpad
  call void @_ZN7rocksdb9lru_cache14LRUHandleTableD1Ev(ptr noundef nonnull align 8 dereferenceable(32) %table_) #15
  br label %eh.resume

eh.resume:                                        ; preds = %ehcleanup
  %exn = load ptr, ptr %exn.slot, align 8
  %sel = load i32, ptr %ehselector.slot, align 4
  %lpad.val = insertvalue { ptr, i32 } poison, ptr %exn, 0
  %lpad.val13 = insertvalue { ptr, i32 } %lpad.val, i32 %sel, 1
  resume { ptr, i32 } %lpad.val13
}