; Function Attrs: mustprogress uwtable
define void @_ZN7rocksdb9lru_cache13LRUCacheShardC2EmbddbNS_25CacheMetadataChargePolicyEiPNS_15MemoryAllocatorEPKSt8functionIFbRKNS_5SliceEPNS_5Cache6HandleEbEE(ptr noundef nonnull align 64 dereferenceable(256) %this, i64 noundef %capacity, i1 noundef zeroext %strict_capacity_limit, double noundef %high_pri_pool_ratio, double noundef %low_pri_pool_ratio, i1 noundef zeroext %use_adaptive_mutex, i32 noundef %metadata_charge_policy, i32 noundef %max_upper_hash_bits, ptr noundef %allocator, ptr noundef %eviction_callback) unnamed_addr #0 align 2 personality ptr @__gxx_personality_v0 {
entry:
  %frombool = zext i1 %strict_capacity_limit to i8
  store i32 %metadata_charge_policy, ptr %this, align 64
  %capacity_ = getelementptr inbounds i8, ptr %this, i64 8
  %strict_capacity_limit_ = getelementptr inbounds i8, ptr %this, i64 32
  tail call void @llvm.memset.p0.i64(ptr noundef nonnull align 8 dereferenceable(24) %capacity_, i8 0, i64 24, i1 false)
  store i8 %frombool, ptr %strict_capacity_limit_, align 32
  %high_pri_pool_ratio_ = getelementptr inbounds i8, ptr %this, i64 40
  store double %high_pri_pool_ratio, ptr %high_pri_pool_ratio_, align 8
  %high_pri_pool_capacity_ = getelementptr inbounds i8, ptr %this, i64 48
  store double 0.000000e+00, ptr %high_pri_pool_capacity_, align 16
  %low_pri_pool_ratio_ = getelementptr inbounds i8, ptr %this, i64 56
  store double %low_pri_pool_ratio, ptr %low_pri_pool_ratio_, align 8
  %low_pri_pool_capacity_ = getelementptr inbounds i8, ptr %this, i64 64
  store double 0.000000e+00, ptr %low_pri_pool_capacity_, align 64
  %table_ = getelementptr inbounds i8, ptr %this, i64 160
  tail call void @_ZN7rocksdb9lru_cache14LRUHandleTableC1EiPNS_15MemoryAllocatorE(ptr noundef nonnull align 8 dereferenceable(32) %table_, i32 noundef %max_upper_hash_bits, ptr noundef %allocator)
  %usage_ = getelementptr inbounds i8, ptr %this, i64 192
  %mutex_ = getelementptr inbounds i8, ptr %this, i64 208
  tail call void @llvm.memset.p0.i64(ptr noundef nonnull align 64 dereferenceable(16) %usage_, i8 0, i64 16, i1 false)
  invoke void @_ZN7rocksdb4port5MutexC1Eb(ptr noundef nonnull align 8 dereferenceable(40) %mutex_, i1 noundef zeroext %use_adaptive_mutex)
          to label %invoke.cont unwind label %lpad

invoke.cont:                                      ; preds = %entry
  %eviction_callback_ = getelementptr inbounds i8, ptr %this, i64 248
  store ptr %eviction_callback, ptr %eviction_callback_, align 8
  %lru_5 = getelementptr inbounds i8, ptr %this, i64 72
  %next = getelementptr inbounds i8, ptr %this, i64 96
  store ptr %lru_5, ptr %next, align 32
  %prev = getelementptr inbounds i8, ptr %this, i64 104
  store ptr %lru_5, ptr %prev, align 8
  %lru_low_pri_ = getelementptr inbounds i8, ptr %this, i64 144
  store ptr %lru_5, ptr %lru_low_pri_, align 16
  %lru_bottom_pri_ = getelementptr inbounds i8, ptr %this, i64 152
  store ptr %lru_5, ptr %lru_bottom_pri_, align 8
  invoke void @_ZN7rocksdb9lru_cache13LRUCacheShard11SetCapacityEm(ptr noundef nonnull align 64 dereferenceable(256) %this, i64 noundef %capacity)
          to label %invoke.cont12 unwind label %lpad11

invoke.cont12:                                    ; preds = %invoke.cont
  ret void

lpad:                                             ; preds = %entry
  %0 = landingpad { ptr, i32 }
          cleanup
  br label %ehcleanup

lpad11:                                           ; preds = %invoke.cont
  %1 = landingpad { ptr, i32 }
          cleanup
  tail call void @_ZN7rocksdb4port5MutexD1Ev(ptr noundef nonnull align 8 dereferenceable(40) %mutex_) #25
  br label %ehcleanup

ehcleanup:                                        ; preds = %lpad11, %lpad
  %.pn = phi { ptr, i32 } [ %1, %lpad11 ], [ %0, %lpad ]
  tail call void @_ZN7rocksdb9lru_cache14LRUHandleTableD1Ev(ptr noundef nonnull align 8 dereferenceable(32) %table_) #25
  resume { ptr, i32 } %.pn
}